; Function Attrs: mustprogress nofree norecurse nosync nounwind willreturn memory(read, inaccessiblemem: none) uwtable
define noundef ptr @_ZN12MeshDocument10nextRasterEP11RasterModel(ptr noundef nonnull readonly align 8 dereferenceable(192) %0, ptr noundef readnone %1) local_unnamed_addr #13 align 2 personality ptr @__gxx_personality_v0 {
  %3 = icmp ne ptr %1, null
  %4 = getelementptr inbounds i8, ptr %0, i64 120
  %5 = load i64, ptr %4, align 8
  %.not = icmp eq i64 %5, 0
  %or.cond = select i1 %3, i1 true, i1 %.not
  %6 = getelementptr inbounds i8, ptr %0, i64 104
  %.sroa.07.013 = load ptr, ptr %6, align 8
  br i1 %or.cond, label %9, label %7

7:                                                ; preds = %2
  %8 = getelementptr inbounds i8, ptr %.sroa.07.013, i64 16
  br label %.loopexit

9:                                                ; preds = %2
  %.not1014 = icmp eq ptr %.sroa.07.013, %6
  br i1 %.not1014, label %.loopexit, label %.lr.ph

.lr.ph:                                           ; preds = %9, %14
  %.sroa.07.015 = phi ptr [ %.sroa.07.0.pre, %14 ], [ %.sroa.07.013, %9 ]
  %10 = getelementptr inbounds i8, ptr %.sroa.07.015, i64 16
  %11 = icmp ne ptr %10, %1
  %.sroa.07.0.pre = load ptr, ptr %.sroa.07.015, align 8
  %.not11 = icmp eq ptr %.sroa.07.0.pre, %6
  %or.cond17 = select i1 %11, i1 true, i1 %.not11
  br i1 %or.cond17, label %14, label %12

12:                                               ; preds = %.lr.ph
  %13 = getelementptr inbounds i8, ptr %.sroa.07.0.pre, i64 16
  br label %.loopexit

14:                                               ; preds = %.lr.ph
  %.not10 = icmp eq ptr %.sroa.07.0.pre, %6
  br i1 %.not10, label %.loopexit, label %.lr.ph, !llvm.loop !16

.loopexit:                                        ; preds = %14, %9, %12, %7
  %.0 = phi ptr [ %8, %7 ], [ %13, %12 ], [ null, %9 ], [ null, %14 ]
  ret ptr %.0
}